target datalayout = "e-m:e-p270:32:32-p271:32:32-p272:64:64-i64:64-i128:128-f80:128-n8:16:32:64-S128"
target triple = "x86_64-pc-linux-gnu"

%struct.PS_HintsRec_ = type { ptr, i32, i32, i32, [2 x %struct.PS_DimensionRec_] }
%struct.PS_DimensionRec_ = type { %struct.PS_Hint_TableRec_, %struct.PS_Mask_TableRec_, %struct.PS_Mask_TableRec_ }
%struct.PS_Hint_TableRec_ = type { i32, i32, ptr }
%struct.PS_Mask_TableRec_ = type { i32, i32, ptr }

; Function Attrs: nounwind uwtable
define internal void @ps_hints_stem(ptr noundef %0, i32 noundef %1, i32 noundef %2, ptr noundef %3) #0 {
  %5 = alloca ptr, align 8
  %6 = alloca i32, align 4
  %7 = alloca i32, align 4
  %8 = alloca ptr, align 8
  %9 = alloca ptr, align 8
  %10 = alloca i32, align 4
  %11 = alloca ptr, align 8
  store ptr %0, ptr %5, align 8
  store i32 %1, ptr %6, align 4
  store i32 %2, ptr %7, align 4
  store ptr %3, ptr %8, align 8
  %12 = load ptr, ptr %5, align 8
  %13 = getelementptr inbounds %struct.PS_HintsRec_, ptr %12, i32 0, i32 1
  %14 = load i32, ptr %13, align 8
  %15 = icmp ne i32 %14, 0
  br i1 %15, label %16, label %17

16:                                               ; preds = %4
  br label %64

17:                                               ; preds = %4
  %18 = load i32, ptr %6, align 4
  %19 = icmp ugt i32 %18, 1
  br i1 %19, label %20, label %26

20:                                               ; preds = %17
  br label %21

21:                                               ; preds = %20
  br label %22

22:                                               ; preds = %21
  %23 = load i32, ptr %6, align 4
  %24 = icmp ne i32 %23, 0
  %25 = zext i1 %24 to i32
  store i32 %25, ptr %6, align 4
  br label %26

26:                                               ; preds = %22, %17
  %27 = load ptr, ptr %5, align 8
  %28 = getelementptr inbounds %struct.PS_HintsRec_, ptr %27, i32 0, i32 4
  %29 = load i32, ptr %6, align 4
  %30 = zext i32 %29 to i64
  %31 = getelementptr inbounds [2 x %struct.PS_DimensionRec_], ptr %28, i64 0, i64 %30
  store ptr %31, ptr %9, align 8
  br label %32

32:                                               ; preds = %59, %26
  %33 = load i32, ptr %7, align 4
  %34 = icmp sgt i32 %33, 0
  br i1 %34, label %35, label %64

35:                                               ; preds = %32
  %36 = load ptr, ptr %5, align 8
  %37 = getelementptr inbounds %struct.PS_HintsRec_, ptr %36, i32 0, i32 0
  %38 = load ptr, ptr %37, align 8
  store ptr %38, ptr %11, align 8
  %39 = load ptr, ptr %9, align 8
  %40 = load ptr, ptr %8, align 8
  %41 = getelementptr inbounds i64, ptr %40, i64 0
  %42 = load i64, ptr %41, align 8
  %43 = trunc i64 %42 to i32
  %44 = load ptr, ptr %8, align 8
  %45 = getelementptr inbounds i64, ptr %44, i64 1
  %46 = load i64, ptr %45, align 8
  %47 = trunc i64 %46 to i32
  %48 = load ptr, ptr %11, align 8
  %49 = call i32 @ps_dimension_add_t1stem(ptr noundef %39, i32 noundef %43, i32 noundef %47, ptr noundef %48, ptr noundef null)
  store i32 %49, ptr %10, align 4
  %50 = load i32, ptr %10, align 4
  %51 = icmp ne i32 %50, 0
  br i1 %51, label %52, label %58

52:                                               ; preds = %35
  br label %53

53:                                               ; preds = %52
  br label %54

54:                                               ; preds = %53
  %55 = load i32, ptr %10, align 4
  %56 = load ptr, ptr %5, align 8
  %57 = getelementptr inbounds %struct.PS_HintsRec_, ptr %56, i32 0, i32 1
  store i32 %55, ptr %57, align 8
  br label %64

58:                                               ; preds = %35
  br label %59

59:                                               ; preds = %58
  %60 = load i32, ptr %7, align 4
  %61 = add nsw i32 %60, -1
  store i32 %61, ptr %7, align 4
  %62 = load ptr, ptr %8, align 8
  %63 = getelementptr inbounds i64, ptr %62, i64 2
  store ptr %63, ptr %8, align 8
  br label %32, !llvm.loop !83

64:                                               ; preds = %54, %32, %16
  ret void
}

; Function Attrs: nounwind uwtable
define internal void @t2_hints_stems(ptr noundef %0, i32 noundef %1, i32 noundef %2, ptr noundef %3) #0 {
  %5 = alloca ptr, align 8
  %6 = alloca i32, align 4
  %7 = alloca i32, align 4
  %8 = alloca ptr, align 8
  %9 = alloca [32 x i64], align 16
  %10 = alloca i64, align 8
  %11 = alloca i32, align 4
  %12 = alloca i32, align 4
  store ptr %0, ptr %5, align 8
  store i32 %1, ptr %6, align 4
  store i32 %2, ptr %7, align 4
  store ptr %3, ptr %8, align 8
  %13 = load i32, ptr %7, align 4
  store i32 %13, ptr %11, align 4
  store i64 0, ptr %10, align 8
  br label %14

14:                                               ; preds = %69, %4
  %15 = load i32, ptr %11, align 4
  %16 = icmp sgt i32 %15, 0
  br i1 %16, label %17, label %77

17:                                               ; preds = %14
  %18 = load i32, ptr %11, align 4
  store i32 %18, ptr %7, align 4
  %19 = load i32, ptr %7, align 4
  %20 = icmp sgt i32 %19, 16
  br i1 %20, label %21, label %22

21:                                               ; preds = %17
  store i32 16, ptr %7, align 4
  br label %22

22:                                               ; preds = %21, %17
  store i32 0, ptr %12, align 4
  br label %23

23:                                               ; preds = %42, %22
  %24 = load i32, ptr %12, align 4
  %25 = load i32, ptr %7, align 4
  %26 = mul nsw i32 %25, 2
  %27 = icmp slt i32 %24, %26
  br i1 %27, label %28, label %45

28:                                               ; preds = %23
  %29 = load i64, ptr %10, align 8
  %30 = load ptr, ptr %8, align 8
  %31 = load i32, ptr %12, align 4
  %32 = sext i32 %31 to i64
  %33 = getelementptr inbounds i64, ptr %30, i64 %32
  %34 = load i64, ptr %33, align 8
  %35 = add i64 %29, %34
  store i64 %35, ptr %10, align 8
  %36 = load i64, ptr %10, align 8
  %37 = call i64 @FT_RoundFix(i64 noundef %36)
  %38 = ashr i64 %37, 16
  %39 = load i32, ptr %12, align 4
  %40 = sext i32 %39 to i64
  %41 = getelementptr inbounds [32 x i64], ptr %9, i64 0, i64 %40
  store i64 %38, ptr %41, align 8
  br label %42

42:                                               ; preds = %28
  %43 = load i32, ptr %12, align 4
  %44 = add nsw i32 %43, 1
  store i32 %44, ptr %12, align 4
  br label %23, !llvm.loop !86

45:                                               ; preds = %23
  store i32 0, ptr %12, align 4
  br label %46

46:                                               ; preds = %66, %45
  %47 = load i32, ptr %12, align 4
  %48 = load i32, ptr %7, align 4
  %49 = mul nsw i32 %48, 2
  %50 = icmp slt i32 %47, %49
  br i1 %50, label %51, label %69

51:                                               ; preds = %46
  %52 = load i32, ptr %12, align 4
  %53 = add nsw i32 %52, 1
  %54 = sext i32 %53 to i64
  %55 = getelementptr inbounds [32 x i64], ptr %9, i64 0, i64 %54
  %56 = load i64, ptr %55, align 8
  %57 = load i32, ptr %12, align 4
  %58 = sext i32 %57 to i64
  %59 = getelementptr inbounds [32 x i64], ptr %9, i64 0, i64 %58
  %60 = load i64, ptr %59, align 8
  %61 = sub nsw i64 %56, %60
  %62 = load i32, ptr %12, align 4
  %63 = add nsw i32 %62, 1
  %64 = sext i32 %63 to i64
  %65 = getelementptr inbounds [32 x i64], ptr %9, i64 0, i64 %64
  store i64 %61, ptr %65, align 8
  br label %66

66:                                               ; preds = %51
  %67 = load i32, ptr %12, align 4
  %68 = add nsw i32 %67, 2
  store i32 %68, ptr %12, align 4
  br label %46, !llvm.loop !87

69:                                               ; preds = %46
  %70 = load ptr, ptr %5, align 8
  %71 = load i32, ptr %6, align 4
  %72 = load i32, ptr %7, align 4
  %73 = getelementptr inbounds [32 x i64], ptr %9, i64 0, i64 0
  call void @ps_hints_stem(ptr noundef %70, i32 noundef %71, i32 noundef %72, ptr noundef %73)
  %74 = load i32, ptr %7, align 4
  %75 = load i32, ptr %11, align 4
  %76 = sub nsw i32 %75, %74
  store i32 %76, ptr %11, align 4
  br label %14, !llvm.loop !88

77:                                               ; preds = %14
  ret void
}