; Function Attrs: nounwind uwtable
define internal void @t2_hints_stems(ptr nocapture noundef %0, i32 noundef %1, i32 noundef %2, ptr nocapture noundef readonly %3) #0 {
  %5 = alloca [32 x i64], align 16
  %6 = icmp sgt i32 %2, 0
  br i1 %6, label %.lr.ph, label %._crit_edge

.lr.ph:                                           ; preds = %4
  %7 = getelementptr inbounds i8, ptr %0, i64 8
  %8 = icmp ne i32 %1, 0
  %9 = getelementptr inbounds i8, ptr %0, i64 24
  %10 = zext i1 %8 to i64
  %11 = getelementptr inbounds [2 x %struct.PS_DimensionRec_], ptr %9, i64 0, i64 %10
  br label %12

12:                                               ; preds = %.lr.ph, %ps_hints_stem.exit
  %.02232 = phi i32 [ %2, %.lr.ph ], [ %45, %ps_hints_stem.exit ]
  %.02331 = phi i64 [ 0, %.lr.ph ], [ %19, %ps_hints_stem.exit ]
  %13 = tail call i32 @llvm.umin.i32(i32 %.02232, i32 16)
  %14 = shl nuw nsw i32 %13, 1
  %wide.trip.count = zext nneg i32 %14 to i64
  br label %16

.preheader:                                       ; preds = %16
  %15 = zext nneg i32 %14 to i64
  br label %23

16:                                               ; preds = %12, %16
  %indvars.iv = phi i64 [ 0, %12 ], [ %indvars.iv.next, %16 ]
  %.12428 = phi i64 [ %.02331, %12 ], [ %19, %16 ]
  %17 = getelementptr inbounds i64, ptr %3, i64 %indvars.iv
  %18 = load i64, ptr %17, align 8
  %19 = add i64 %18, %.12428
  %20 = tail call i64 @FT_RoundFix(i64 noundef %19) #11
  %21 = ashr i64 %20, 16
  %22 = getelementptr inbounds [32 x i64], ptr %5, i64 0, i64 %indvars.iv
  store i64 %21, ptr %22, align 8
  %indvars.iv.next = add nuw nsw i64 %indvars.iv, 1
  %exitcond.not = icmp eq i64 %indvars.iv.next, %wide.trip.count
  br i1 %exitcond.not, label %.preheader, label %16, !llvm.loop !85

23:                                               ; preds = %.preheader, %23
  %indvars.iv36 = phi i64 [ 0, %.preheader ], [ %indvars.iv.next37, %23 ]
  %24 = or disjoint i64 %indvars.iv36, 1
  %25 = getelementptr inbounds [32 x i64], ptr %5, i64 0, i64 %24
  %26 = load i64, ptr %25, align 8
  %27 = getelementptr inbounds [32 x i64], ptr %5, i64 0, i64 %indvars.iv36
  %28 = load i64, ptr %27, align 16
  %29 = sub nsw i64 %26, %28
  store i64 %29, ptr %25, align 8
  %indvars.iv.next37 = add nuw nsw i64 %indvars.iv36, 2
  %30 = icmp ult i64 %indvars.iv.next37, %15
  br i1 %30, label %23, label %31, !llvm.loop !86

31:                                               ; preds = %23
  %32 = load i32, ptr %7, align 8
  %.not.i = icmp eq i32 %32, 0
  br i1 %.not.i, label %.lr.ph.i, label %ps_hints_stem.exit

.lr.ph.i:                                         ; preds = %31, %41
  %.01521.i = phi i32 [ %42, %41 ], [ %13, %31 ]
  %.01620.i = phi ptr [ %43, %41 ], [ %5, %31 ]
  %33 = load ptr, ptr %0, align 8
  %34 = load i64, ptr %.01620.i, align 8
  %35 = trunc i64 %34 to i32
  %36 = getelementptr inbounds i8, ptr %.01620.i, i64 8
  %37 = load i64, ptr %36, align 8
  %38 = trunc i64 %37 to i32
  %39 = tail call fastcc i32 @ps_dimension_add_t1stem(ptr noundef nonnull %11, i32 noundef %35, i32 noundef %38, ptr noundef %33, ptr noundef null)
  %.not19.i = icmp eq i32 %39, 0
  br i1 %.not19.i, label %41, label %40

40:                                               ; preds = %.lr.ph.i
  store i32 %39, ptr %7, align 8
  br label %ps_hints_stem.exit

41:                                               ; preds = %.lr.ph.i
  %42 = add nsw i32 %.01521.i, -1
  %43 = getelementptr inbounds i8, ptr %.01620.i, i64 16
  %44 = icmp sgt i32 %.01521.i, 1
  br i1 %44, label %.lr.ph.i, label %ps_hints_stem.exit, !llvm.loop !87

ps_hints_stem.exit:                               ; preds = %41, %31, %40
  %45 = sub nsw i32 %.02232, %13
  %46 = icmp sgt i32 %45, 0
  br i1 %46, label %12, label %._crit_edge, !llvm.loop !88

._crit_edge:                                      ; preds = %ps_hints_stem.exit, %4
  ret void
}